target datalayout = "e-m:e-p270:32:32-p271:32:32-p272:64:64-i64:64-i128:128-f80:128-n8:16:32:64-S128"
target triple = "x86_64-pc-linux-gnu"

%"struct.duckdb::StringDictionaryContainer" = type { i32, i32 }
%"class.duckdb::BufferHandle" = type { %"class.duckdb::shared_ptr", %"class.duckdb::optional_ptr" }
%"class.duckdb::shared_ptr" = type { %"class.std::shared_ptr" }
%"class.std::shared_ptr" = type { %"class.std::__shared_ptr" }
%"class.std::__shared_ptr" = type { ptr, %"class.std::__shared_count" }
%"class.std::__shared_count" = type { ptr }
%"class.duckdb::optional_ptr" = type { ptr }
%"struct.duckdb::CompressionState" = type { ptr, %"class.duckdb::CompressionInfo" }
%"class.duckdb::CompressionInfo" = type { i64 }
%"struct.duckdb::string_t" = type { %union.anon.29 }
%union.anon.29 = type { %struct.anon }
%struct.anon = type { i32, [4 x i8], ptr }
%"class.duckdb::DictionaryCompressionState" = type { %"struct.duckdb::CompressionState" }
%"struct.std::__detail::_Hash_node_base" = type { ptr }
%"struct.std::__detail::_Prime_rehash_policy" = type { float, i64 }
%"struct.duckdb::DictionaryCompressionCompressState" = type { %"class.duckdb::DictionaryCompressionState", ptr, ptr, %"class.duckdb::unique_ptr.56", %"class.duckdb::BufferHandle", %"struct.duckdb::StringDictionaryContainer", ptr, %"class.std::unordered_map", %"class.duckdb::vector", %"class.duckdb::vector", i8, i8, i32 }
%"class.duckdb::unique_ptr.56" = type { %"class.std::unique_ptr.57" }
%"class.std::unique_ptr.57" = type { %"struct.std::__uniq_ptr_data.58" }
%"struct.std::__uniq_ptr_data.58" = type { %"class.std::__uniq_ptr_impl.59" }
%"class.std::__uniq_ptr_impl.59" = type { %"class.std::tuple.60" }
%"class.std::tuple.60" = type { %"struct.std::_Tuple_impl.61" }
%"struct.std::_Tuple_impl.61" = type { %"struct.std::_Head_base.64" }
%"struct.std::_Head_base.64" = type { ptr }
%"class.std::unordered_map" = type { %"class.std::_Hashtable.65" }
%"class.std::_Hashtable.65" = type { ptr, i64, %"struct.std::__detail::_Hash_node_base", i64, %"struct.std::__detail::_Prime_rehash_policy", ptr }
%"class.duckdb::vector" = type { %"class.std::vector" }
%"class.std::vector" = type { %"struct.std::_Vector_base" }
%"struct.std::_Vector_base" = type { %"struct.std::_Vector_base<unsigned int, std::allocator<unsigned int>>::_Vector_impl" }
%"struct.std::_Vector_base<unsigned int, std::allocator<unsigned int>>::_Vector_impl" = type { %"struct.std::_Vector_base<unsigned int, std::allocator<unsigned int>>::_Vector_impl_data" }
%"struct.std::_Vector_base<unsigned int, std::allocator<unsigned int>>::_Vector_impl_data" = type { ptr, ptr, ptr }
%"struct.std::__detail::_Node_iterator.127" = type { %"struct.std::__detail::_Node_iterator_base.128" }
%"struct.std::__detail::_Node_iterator_base.128" = type { ptr }
%"struct.std::pair.129" = type <{ %"struct.duckdb::string_t", i32, [4 x i8] }>
%"struct.std::__detail::_Hash_node_value_base" = type { %"struct.__gnu_cxx::__aligned_buffer" }
%"struct.__gnu_cxx::__aligned_buffer" = type { %"union.std::aligned_storage<24, 8>::type" }
%"union.std::aligned_storage<24, 8>::type" = type { [24 x i8] }

; Function Attrs: mustprogress nounwind uwtable
define linkonce_odr noundef ptr @_ZN9__gnu_cxx16__aligned_bufferISt4pairIKN6duckdb8string_tEjEE7_M_addrEv(ptr noundef nonnull align 8 dereferenceable(24) %0) #3 comdat align 2 {
  %2 = alloca ptr, align 8
  store ptr %0, ptr %2, align 8, !tbaa !402
  %3 = load ptr, ptr %2, align 8
  %4 = getelementptr inbounds nuw %"struct.__gnu_cxx::__aligned_buffer", ptr %3, i32 0, i32 0
  ret ptr %4
}

; Function Attrs: mustprogress nounwind uwtable
define linkonce_odr void @_ZNSt8__detail19_Node_iterator_baseISt4pairIKN6duckdb8string_tEjELb1EEC2EPNS_10_Hash_nodeIS5_Lb1EEE(ptr noundef nonnull align 8 dereferenceable(8) %0, ptr noundef %1) unnamed_addr #3 comdat align 2 {
  %3 = alloca ptr, align 8
  %4 = alloca ptr, align 8
  store ptr %0, ptr %3, align 8, !tbaa !219
  store ptr %1, ptr %4, align 8, !tbaa !398
  %5 = load ptr, ptr %3, align 8
  %6 = getelementptr inbounds nuw %"struct.std::__detail::_Node_iterator_base.128", ptr %5, i32 0, i32 0
  %7 = load ptr, ptr %4, align 8, !tbaa !398
  store ptr %7, ptr %6, align 8, !tbaa !221
  ret void
}

; Function Attrs: mustprogress nounwind uwtable
define linkonce_odr noundef ptr @_ZN9__gnu_cxx16__aligned_bufferISt4pairIKN6duckdb8string_tEjEE6_M_ptrEv(ptr noundef nonnull align 8 dereferenceable(24) %0) #3 comdat align 2 {
  %2 = alloca ptr, align 8
  store ptr %0, ptr %2, align 8, !tbaa !402
  %3 = load ptr, ptr %2, align 8
  %4 = call noundef ptr @_ZN9__gnu_cxx16__aligned_bufferISt4pairIKN6duckdb8string_tEjEE7_M_addrEv(ptr noundef nonnull align 8 dereferenceable(24) %3) #19
  ret ptr %4
}

; Function Attrs: mustprogress nounwind uwtable
define linkonce_odr void @_ZNSt8__detail14_Node_iteratorISt4pairIKN6duckdb8string_tEjELb0ELb1EEC2EPNS_10_Hash_nodeIS5_Lb1EEE(ptr noundef nonnull align 8 dereferenceable(8) %0, ptr noundef %1) unnamed_addr #3 comdat align 2 {
  %3 = alloca ptr, align 8
  %4 = alloca ptr, align 8
  store ptr %0, ptr %3, align 8, !tbaa !224
  store ptr %1, ptr %4, align 8, !tbaa !398
  %5 = load ptr, ptr %3, align 8
  %6 = load ptr, ptr %4, align 8, !tbaa !398
  call void @_ZNSt8__detail19_Node_iterator_baseISt4pairIKN6duckdb8string_tEjELb1EEC2EPNS_10_Hash_nodeIS5_Lb1EEE(ptr noundef nonnull align 8 dereferenceable(8) %5, ptr noundef %6) #19
  ret void
}

; Function Attrs: mustprogress nounwind uwtable
define linkonce_odr noundef ptr @_ZNSt8__detail21_Hash_node_value_baseISt4pairIKN6duckdb8string_tEjEE9_M_valptrEv(ptr noundef nonnull align 8 dereferenceable(24) %0) #3 comdat align 2 {
  %2 = alloca ptr, align 8
  store ptr %0, ptr %2, align 8, !tbaa !400
  %3 = load ptr, ptr %2, align 8
  %4 = getelementptr inbounds nuw %"struct.std::__detail::_Hash_node_value_base", ptr %3, i32 0, i32 0
  %5 = call noundef ptr @_ZN9__gnu_cxx16__aligned_bufferISt4pairIKN6duckdb8string_tEjEE6_M_ptrEv(ptr noundef nonnull align 8 dereferenceable(24) %4) #19
  ret ptr %5
}

; Function Attrs: mustprogress nounwind uwtable
define linkonce_odr ptr @_ZNSt10_HashtableIN6duckdb8string_tESt4pairIKS1_jESaIS4_ENSt8__detail10_Select1stENS0_14StringEqualityENS0_10StringHashENS6_18_Mod_range_hashingENS6_20_Default_ranged_hashENS6_20_Prime_rehash_policyENS6_17_Hashtable_traitsILb1ELb0ELb1EEEE3endEv(ptr noundef nonnull align 8 dereferenceable(56) %0) #3 comdat align 2 {
  %2 = alloca %"struct.std::__detail::_Node_iterator.127", align 8
  %3 = alloca ptr, align 8
  store ptr %0, ptr %3, align 8, !tbaa !369
  call void @_ZNSt8__detail14_Node_iteratorISt4pairIKN6duckdb8string_tEjELb0ELb1EEC2EPNS_10_Hash_nodeIS5_Lb1EEE(ptr noundef nonnull align 8 dereferenceable(8) %2, ptr noundef null) #19
  %4 = getelementptr inbounds nuw %"struct.std::__detail::_Node_iterator.127", ptr %2, i32 0, i32 0
  %5 = getelementptr inbounds nuw %"struct.std::__detail::_Node_iterator_base.128", ptr %4, i32 0, i32 0
  %6 = load ptr, ptr %5, align 8
  ret ptr %6
}

; Function Attrs: mustprogress nounwind uwtable
define linkonce_odr noundef ptr @_ZNKSt8__detail14_Node_iteratorISt4pairIKN6duckdb8string_tEjELb0ELb1EEptEv(ptr noundef nonnull align 8 dereferenceable(8) %0) #3 comdat align 2 {
  %2 = alloca ptr, align 8
  store ptr %0, ptr %2, align 8, !tbaa !224
  %3 = load ptr, ptr %2, align 8
  %4 = getelementptr inbounds nuw %"struct.std::__detail::_Node_iterator_base.128", ptr %3, i32 0, i32 0
  %5 = load ptr, ptr %4, align 8, !tbaa !221
  %6 = getelementptr inbounds i8, ptr %5, i64 8
  %7 = call noundef ptr @_ZNSt8__detail21_Hash_node_value_baseISt4pairIKN6duckdb8string_tEjEE9_M_valptrEv(ptr noundef nonnull align 8 dereferenceable(24) %6) #19
  ret ptr %7
}

; Function Attrs: mustprogress nounwind uwtable
define linkonce_odr noundef zeroext i1 @_ZNSt8__detailneERKNS_19_Node_iterator_baseISt4pairIKN6duckdb8string_tEjELb1EEES8_(ptr noundef nonnull align 8 dereferenceable(8) %0, ptr noundef nonnull align 8 dereferenceable(8) %1) #3 comdat {
  %3 = alloca ptr, align 8
  %4 = alloca ptr, align 8
  store ptr %0, ptr %3, align 8, !tbaa !219
  store ptr %1, ptr %4, align 8, !tbaa !219
  %5 = load ptr, ptr %3, align 8, !tbaa !219
  %6 = getelementptr inbounds nuw %"struct.std::__detail::_Node_iterator_base.128", ptr %5, i32 0, i32 0
  %7 = load ptr, ptr %6, align 8, !tbaa !221
  %8 = load ptr, ptr %4, align 8, !tbaa !219
  %9 = getelementptr inbounds nuw %"struct.std::__detail::_Node_iterator_base.128", ptr %8, i32 0, i32 0
  %10 = load ptr, ptr %9, align 8, !tbaa !221
  %11 = icmp ne ptr %7, %10
  ret i1 %11
}

; Function Attrs: mustprogress nounwind uwtable
define linkonce_odr ptr @_ZNSt13unordered_mapIN6duckdb8string_tEjNS0_10StringHashENS0_14StringEqualityESaISt4pairIKS1_jEEE3endEv(ptr noundef nonnull align 8 dereferenceable(56) %0) #3 comdat align 2 {
  %2 = alloca %"struct.std::__detail::_Node_iterator.127", align 8
  %3 = alloca ptr, align 8
  store ptr %0, ptr %3, align 8, !tbaa !192
  %4 = load ptr, ptr %3, align 8
  %5 = getelementptr inbounds nuw %"class.std::unordered_map", ptr %4, i32 0, i32 0
  %6 = call ptr @_ZNSt10_HashtableIN6duckdb8string_tESt4pairIKS1_jESaIS4_ENSt8__detail10_Select1stENS0_14StringEqualityENS0_10StringHashENS6_18_Mod_range_hashingENS6_20_Default_ranged_hashENS6_20_Prime_rehash_policyENS6_17_Hashtable_traitsILb1ELb0ELb1EEEE3endEv(ptr noundef nonnull align 8 dereferenceable(56) %5) #19
  %7 = getelementptr inbounds nuw %"struct.std::__detail::_Node_iterator.127", ptr %2, i32 0, i32 0
  %8 = getelementptr inbounds nuw %"struct.std::__detail::_Node_iterator_base.128", ptr %7, i32 0, i32 0
  store ptr %6, ptr %8, align 8
  %9 = getelementptr inbounds nuw %"struct.std::__detail::_Node_iterator.127", ptr %2, i32 0, i32 0
  %10 = getelementptr inbounds nuw %"struct.std::__detail::_Node_iterator_base.128", ptr %9, i32 0, i32 0
  %11 = load ptr, ptr %10, align 8
  ret ptr %11
}

; Function Attrs: mustprogress uwtable
define linkonce_odr ptr @_ZNSt13unordered_mapIN6duckdb8string_tEjNS0_10StringHashENS0_14StringEqualityESaISt4pairIKS1_jEEE4findERS5_(ptr noundef nonnull align 8 dereferenceable(56) %0, ptr noundef nonnull align 8 dereferenceable(16) %1) #0 comdat align 2 {
  %3 = alloca %"struct.std::__detail::_Node_iterator.127", align 8
  %4 = alloca ptr, align 8
  %5 = alloca ptr, align 8
  store ptr %0, ptr %4, align 8, !tbaa !192
  store ptr %1, ptr %5, align 8, !tbaa !81
  %6 = load ptr, ptr %4, align 8
  %7 = getelementptr inbounds nuw %"class.std::unordered_map", ptr %6, i32 0, i32 0
  %8 = load ptr, ptr %5, align 8, !tbaa !81
  %9 = call ptr @_ZNSt10_HashtableIN6duckdb8string_tESt4pairIKS1_jESaIS4_ENSt8__detail10_Select1stENS0_14StringEqualityENS0_10StringHashENS6_18_Mod_range_hashingENS6_20_Default_ranged_hashENS6_20_Prime_rehash_policyENS6_17_Hashtable_traitsILb1ELb0ELb1EEEE4findERS3_(ptr noundef nonnull align 8 dereferenceable(56) %7, ptr noundef nonnull align 8 dereferenceable(16) %8)
  %10 = getelementptr inbounds nuw %"struct.std::__detail::_Node_iterator.127", ptr %3, i32 0, i32 0
  %11 = getelementptr inbounds nuw %"struct.std::__detail::_Node_iterator_base.128", ptr %10, i32 0, i32 0
  store ptr %9, ptr %11, align 8
  %12 = getelementptr inbounds nuw %"struct.std::__detail::_Node_iterator.127", ptr %3, i32 0, i32 0
  %13 = getelementptr inbounds nuw %"struct.std::__detail::_Node_iterator_base.128", ptr %12, i32 0, i32 0
  %14 = load ptr, ptr %13, align 8
  ret ptr %14
}

; Function Attrs: mustprogress uwtable
define noundef zeroext i1 @_ZN6duckdb34DictionaryCompressionCompressState12LookupStringENS_8string_tE(ptr noundef nonnull align 8 dereferenceable(192) %0, i64 %1, ptr %2) unnamed_addr #0 align 2 {
  %4 = alloca %"struct.duckdb::string_t", align 8
  %5 = alloca ptr, align 8
  %6 = alloca %"struct.std::__detail::_Node_iterator.127", align 8
  %7 = alloca i8, align 1
  %8 = alloca %"struct.std::__detail::_Node_iterator.127", align 8
  %9 = getelementptr inbounds nuw { i64, ptr }, ptr %4, i32 0, i32 0
  store i64 %1, ptr %9, align 8
  %10 = getelementptr inbounds nuw { i64, ptr }, ptr %4, i32 0, i32 1
  store ptr %2, ptr %10, align 8
  store ptr %0, ptr %5, align 8, !tbaa !159
  %11 = load ptr, ptr %5, align 8
  call void @llvm.lifetime.start.p0(i64 8, ptr %6) #19
  %12 = getelementptr inbounds nuw %"struct.duckdb::DictionaryCompressionCompressState", ptr %11, i32 0, i32 7
  %13 = call ptr @_ZNSt13unordered_mapIN6duckdb8string_tEjNS0_10StringHashENS0_14StringEqualityESaISt4pairIKS1_jEEE4findERS5_(ptr noundef nonnull align 8 dereferenceable(56) %12, ptr noundef nonnull align 8 dereferenceable(16) %4)
  %14 = getelementptr inbounds nuw %"struct.std::__detail::_Node_iterator.127", ptr %6, i32 0, i32 0
  %15 = getelementptr inbounds nuw %"struct.std::__detail::_Node_iterator_base.128", ptr %14, i32 0, i32 0
  store ptr %13, ptr %15, align 8
  call void @llvm.lifetime.start.p0(i64 1, ptr %7) #19
  call void @llvm.lifetime.start.p0(i64 8, ptr %8) #19
  %16 = getelementptr inbounds nuw %"struct.duckdb::DictionaryCompressionCompressState", ptr %11, i32 0, i32 7
  %17 = call ptr @_ZNSt13unordered_mapIN6duckdb8string_tEjNS0_10StringHashENS0_14StringEqualityESaISt4pairIKS1_jEEE3endEv(ptr noundef nonnull align 8 dereferenceable(56) %16) #19
  %18 = getelementptr inbounds nuw %"struct.std::__detail::_Node_iterator.127", ptr %8, i32 0, i32 0
  %19 = getelementptr inbounds nuw %"struct.std::__detail::_Node_iterator_base.128", ptr %18, i32 0, i32 0
  store ptr %17, ptr %19, align 8
  %20 = call noundef zeroext i1 @_ZNSt8__detailneERKNS_19_Node_iterator_baseISt4pairIKN6duckdb8string_tEjELb1EEES8_(ptr noundef nonnull align 8 dereferenceable(8) %6, ptr noundef nonnull align 8 dereferenceable(8) %8) #19
  call void @llvm.lifetime.end.p0(i64 8, ptr %8) #19
  %21 = zext i1 %20 to i8
  store i8 %21, ptr %7, align 1, !tbaa !98
  %22 = load i8, ptr %7, align 1, !tbaa !98, !range !99, !noundef !100
  %23 = trunc i8 %22 to i1
  br i1 %23, label %24, label %29

24:                                               ; preds = %3
  %25 = call noundef ptr @_ZNKSt8__detail14_Node_iteratorISt4pairIKN6duckdb8string_tEjELb0ELb1EEptEv(ptr noundef nonnull align 8 dereferenceable(8) %6) #19
  %26 = getelementptr inbounds nuw %"struct.std::pair.129", ptr %25, i32 0, i32 1
  %27 = load i32, ptr %26, align 8, !tbaa !215
  %28 = getelementptr inbounds nuw %"struct.duckdb::DictionaryCompressionCompressState", ptr %11, i32 0, i32 12
  store i32 %27, ptr %28, align 4, !tbaa !218
  br label %29

29:                                               ; preds = %24, %3
  %30 = load i8, ptr %7, align 1, !tbaa !98, !range !99, !noundef !100
  %31 = trunc i8 %30 to i1
  call void @llvm.lifetime.end.p0(i64 1, ptr %7) #19
  call void @llvm.lifetime.end.p0(i64 8, ptr %6) #19
  ret i1 %31
}