; Function Attrs: mustprogress uwtable
define noundef zeroext i1 @_ZN6duckdb34DictionaryCompressionCompressState12LookupStringENS_8string_tE(ptr noundef nonnull align 8 dereferenceable(192) %0, i64 %1, ptr %2) unnamed_addr #0 align 2 {
  %4 = alloca %"struct.duckdb::string_t", align 8
  store i64 %1, ptr %4, align 8
  %5 = getelementptr inbounds nuw i8, ptr %4, i64 8
  store ptr %2, ptr %5, align 8
  %6 = getelementptr inbounds nuw i8, ptr %0, i64 80
  %7 = call ptr @_ZNSt10_HashtableIN6duckdb8string_tESt4pairIKS1_jESaIS4_ENSt8__detail10_Select1stENS0_14StringEqualityENS0_10StringHashENS6_18_Mod_range_hashingENS6_20_Default_ranged_hashENS6_20_Prime_rehash_policyENS6_17_Hashtable_traitsILb1ELb0ELb1EEEE4findERS3_(ptr noundef nonnull align 8 dereferenceable(56) %6, ptr noundef nonnull align 8 dereferenceable(16) %4)
  %8 = icmp ne ptr %7, null
  br i1 %8, label %9, label %13

9:                                                ; preds = %3
  %10 = getelementptr inbounds nuw i8, ptr %7, i64 24
  %11 = load i32, ptr %10, align 8, !tbaa !180
  %12 = getelementptr inbounds nuw i8, ptr %0, i64 188
  store i32 %11, ptr %12, align 4, !tbaa !183
  br label %13

13:                                               ; preds = %9, %3
  ret i1 %8
}